target datalayout = "e-m:e-p270:32:32-p271:32:32-p272:64:64-i64:64-i128:128-f80:128-n8:16:32:64-S128"
target triple = "x86_64-pc-linux-gnu"

%class.ReallocMark = type { i8 }
%class.ImplicitExceptionTable = type <{ i32, i32, ptr, %class.ReallocMark, [7 x i8] }>

; Function Attrs: mustprogress nounwind uwtable
define linkonce_odr hidden noundef ptr @_ZNK22ImplicitExceptionTable3adrEj(ptr noundef nonnull align 8 dereferenceable(17) %0, i32 noundef %1) #1 comdat align 2 {
  %3 = alloca ptr, align 8
  %4 = alloca i32, align 4
  store ptr %0, ptr %3, align 8
  store i32 %1, ptr %4, align 4
  %5 = load ptr, ptr %3, align 8
  %6 = getelementptr inbounds %class.ImplicitExceptionTable, ptr %5, i32 0, i32 2
  %7 = load ptr, ptr %6, align 8
  %8 = load i32, ptr %4, align 4
  %9 = mul i32 2, %8
  %10 = zext i32 %9 to i64
  %11 = getelementptr inbounds i32, ptr %7, i64 %10
  ret ptr %11
}

; Function Attrs: mustprogress nounwind uwtable
define linkonce_odr hidden noundef i32 @_ZNK22ImplicitExceptionTable3lenEv(ptr noundef nonnull align 8 dereferenceable(17) %0) #1 comdat align 2 {
  %2 = alloca ptr, align 8
  store ptr %0, ptr %2, align 8
  %3 = load ptr, ptr %2, align 8
  %4 = getelementptr inbounds %class.ImplicitExceptionTable, ptr %3, i32 0, i32 1
  %5 = load i32, ptr %4, align 4
  ret i32 %5
}

; Function Attrs: mustprogress nounwind uwtable
define hidden noundef i32 @_ZNK22ImplicitExceptionTable19continuation_offsetEj(ptr noundef nonnull align 8 dereferenceable(17) %0, i32 noundef %1) #1 align 2 {
  %3 = alloca i32, align 4
  %4 = alloca ptr, align 8
  %5 = alloca i32, align 4
  %6 = alloca i32, align 4
  %7 = alloca i32, align 4
  store ptr %0, ptr %4, align 8
  store i32 %1, ptr %5, align 4
  %8 = load ptr, ptr %4, align 8
  %9 = call noundef i32 @_ZNK22ImplicitExceptionTable3lenEv(ptr noundef nonnull align 8 dereferenceable(17) %8)
  store i32 %9, ptr %6, align 4
  store i32 0, ptr %7, align 4
  br label %10

10:                                               ; preds = %26, %2
  %11 = load i32, ptr %7, align 4
  %12 = load i32, ptr %6, align 4
  %13 = icmp ult i32 %11, %12
  br i1 %13, label %14, label %29

14:                                               ; preds = %10
  %15 = load i32, ptr %7, align 4
  %16 = call noundef ptr @_ZNK22ImplicitExceptionTable3adrEj(ptr noundef nonnull align 8 dereferenceable(17) %8, i32 noundef %15)
  %17 = load i32, ptr %16, align 4
  %18 = load i32, ptr %5, align 4
  %19 = icmp eq i32 %17, %18
  br i1 %19, label %20, label %25

20:                                               ; preds = %14
  %21 = load i32, ptr %7, align 4
  %22 = call noundef ptr @_ZNK22ImplicitExceptionTable3adrEj(ptr noundef nonnull align 8 dereferenceable(17) %8, i32 noundef %21)
  %23 = getelementptr inbounds i32, ptr %22, i64 1
  %24 = load i32, ptr %23, align 4
  store i32 %24, ptr %3, align 4
  br label %30

25:                                               ; preds = %14
  br label %26

26:                                               ; preds = %25
  %27 = load i32, ptr %7, align 4
  %28 = add i32 %27, 1
  store i32 %28, ptr %7, align 4
  br label %10, !llvm.loop !12

29:                                               ; preds = %10
  store i32 0, ptr %3, align 4
  br label %30

30:                                               ; preds = %29, %20
  %31 = load i32, ptr %3, align 4
  ret i32 %31
}