; Function Attrs: mustprogress nofree norecurse nosync nounwind willreturn memory(read, inaccessiblemem: none) uwtable
define hidden noundef i32 @_ZNK22ImplicitExceptionTable19continuation_offsetEj(ptr nocapture noundef nonnull readonly align 8 dereferenceable(17) %0, i32 noundef %1) local_unnamed_addr #3 align 2 {
  %3 = getelementptr inbounds i8, ptr %0, i64 4
  %4 = load i32, ptr %3, align 4
  %.not = icmp eq i32 %4, 0
  br i1 %.not, label %.loopexit, label %.lr.ph

.lr.ph:                                           ; preds = %2
  %5 = getelementptr inbounds i8, ptr %0, i64 8
  %6 = load ptr, ptr %5, align 8
  %wide.trip.count = zext i32 %4 to i64
  br label %8

7:                                                ; preds = %8
  %indvars.iv.next = add nuw nsw i64 %indvars.iv, 1
  %exitcond.not = icmp eq i64 %indvars.iv.next, %wide.trip.count
  br i1 %exitcond.not, label %.loopexit, label %8, !llvm.loop !12

8:                                                ; preds = %.lr.ph, %7
  %indvars.iv = phi i64 [ 0, %.lr.ph ], [ %indvars.iv.next, %7 ]
  %9 = shl nuw i64 %indvars.iv, 1
  %10 = and i64 %9, 4294967294
  %11 = getelementptr inbounds i32, ptr %6, i64 %10
  %12 = load i32, ptr %11, align 4
  %13 = icmp eq i32 %12, %1
  br i1 %13, label %14, label %7

14:                                               ; preds = %8
  %15 = getelementptr inbounds i32, ptr %6, i64 %10
  %16 = getelementptr inbounds i8, ptr %15, i64 4
  %17 = load i32, ptr %16, align 4
  br label %.loopexit

.loopexit:                                        ; preds = %7, %2, %14
  %.07 = phi i32 [ %17, %14 ], [ 0, %2 ], [ 0, %7 ]
  ret i32 %.07
}